target datalayout = "e-m:e-p270:32:32-p271:32:32-p272:64:64-i64:64-i128:128-f80:128-n8:16:32:64-S128"
target triple = "x86_64-pc-linux-gnu"

%struct.SDL_RenderDriver = type { ptr, ptr }
%struct.Float4X4 = type { %union.anon }
%union.anon = type { %struct.anon }
%struct.anon = type { float, float, float, float, float, float, float, float, float, float, float, float, float, float, float, float }
%struct.SDL_Renderer = type { ptr, ptr, ptr, ptr, ptr, ptr, ptr, ptr, ptr, ptr, ptr, ptr, ptr, ptr, ptr, ptr, ptr, ptr, ptr, ptr, ptr, ptr, ptr, ptr, ptr, ptr, ptr, ptr, ptr, ptr, i32, i8, ptr, i8, i8, i8, i64, i64, ptr, %struct.SDL_RenderViewState, %struct.SDL_FPoint, i32, i32, ptr, ptr, ptr, i32, float, float, float, float, %struct.SDL_FColor, i32, i32, i32, ptr, ptr, ptr, ptr, i32, %struct.SDL_FColor, float, %struct.SDL_Rect, %struct.SDL_Rect, i8, i8, i8, i8, ptr, i64, i64, i8, ptr, ptr, i32, ptr, i8, ptr, ptr }
%struct.SDL_RenderViewState = type { i32, i32, %struct.SDL_Rect, %struct.SDL_Rect, %struct.SDL_Rect, %struct.SDL_Rect, i8, %struct.SDL_FPoint, i32, i32, i32, %struct.SDL_FRect, %struct.SDL_FRect, %struct.SDL_FPoint, %struct.SDL_FPoint, %struct.SDL_FPoint }
%struct.SDL_FRect = type { float, float, float, float }
%struct.SDL_FPoint = type { float, float }
%struct.SDL_FColor = type { float, float, float, float }
%struct.SDL_Rect = type { i32, i32, i32, i32 }
%struct.VULKAN_RenderData = type { ptr, ptr, i8, ptr, i8, ptr, %struct.VkPhysicalDeviceProperties, %struct.VkPhysicalDeviceMemoryProperties, %struct.VkPhysicalDeviceFeatures, ptr, ptr, ptr, i8, i32, i32, ptr, ptr, ptr, i32, ptr, ptr, %struct.VkSurfaceCapabilitiesKHR, ptr, i8, i32, i32, ptr, [2 x ptr], ptr, [3 x ptr], [3 x ptr], ptr, ptr, [256 x %struct.VULKAN_Buffer], %struct.VULKAN_VertexShaderConstants, ptr, ptr, ptr, ptr, i32, i32, [8 x ptr], ptr, ptr, i32, i32, i32, ptr, ptr, i8, i8, i8, i32, i32, i32, %struct.VkSurfaceFormatKHR, %struct.VkExtent2D, i32, i32, ptr, ptr, ptr, ptr, ptr, ptr, i32, ptr, ptr, i32, i32, ptr, i32, i32, ptr, i8, i8, %struct.SDL_Rect, %struct.SDL_Rect, i32, i8, %struct.Float4X4, %struct.VkComponentMapping, i32, i8 }
%struct.VkPhysicalDeviceProperties = type { i32, i32, i32, i32, i32, [256 x i8], [16 x i8], %struct.VkPhysicalDeviceLimits, %struct.VkPhysicalDeviceSparseProperties }
%struct.VkPhysicalDeviceLimits = type { i32, i32, i32, i32, i32, i32, i32, i32, i32, i32, i32, i64, i64, i32, i32, i32, i32, i32, i32, i32, i32, i32, i32, i32, i32, i32, i32, i32, i32, i32, i32, i32, i32, i32, i32, i32, i32, i32, i32, i32, i32, i32, i32, i32, i32, i32, i32, i32, i32, i32, i32, i32, [3 x i32], i32, [3 x i32], i32, i32, i32, i32, i32, float, float, i32, [2 x i32], [2 x float], i32, i64, i64, i64, i64, i32, i32, i32, i32, float, float, i32, i32, i32, i32, i32, i32, i32, i32, i32, i32, i32, i32, i32, i32, i32, i32, float, i32, i32, i32, i32, [2 x float], [2 x float], float, float, i32, i32, i64, i64, i64 }
%struct.VkPhysicalDeviceSparseProperties = type { i32, i32, i32, i32, i32 }
%struct.VkPhysicalDeviceMemoryProperties = type { i32, [32 x %struct.VkMemoryType], i32, [16 x %struct.VkMemoryHeap] }
%struct.VkMemoryType = type { i32, i32 }
%struct.VkMemoryHeap = type { i64, i32 }
%struct.VkPhysicalDeviceFeatures = type { i32, i32, i32, i32, i32, i32, i32, i32, i32, i32, i32, i32, i32, i32, i32, i32, i32, i32, i32, i32, i32, i32, i32, i32, i32, i32, i32, i32, i32, i32, i32, i32, i32, i32, i32, i32, i32, i32, i32, i32, i32, i32, i32, i32, i32, i32, i32, i32, i32, i32, i32, i32, i32, i32, i32 }
%struct.VkSurfaceCapabilitiesKHR = type { i32, i32, %struct.VkExtent2D, %struct.VkExtent2D, %struct.VkExtent2D, i32, i32, i32, i32, i32 }
%struct.VULKAN_Buffer = type { ptr, ptr, i64, ptr }
%struct.VULKAN_VertexShaderConstants = type { %struct.Float4X4, %struct.Float4X4 }
%struct.VkSurfaceFormatKHR = type { i32, i32 }
%struct.VkExtent2D = type { i32, i32 }
%struct.VkComponentMapping = type { i32, i32, i32, i32 }

@VULKAN_RenderDriver = hidden global %struct.SDL_RenderDriver { ptr @VULKAN_CreateRenderer, ptr @.str }, align 8
@.str.1 = private unnamed_addr constant [30 x i8] c"Unsupported output colorspace\00", align 1
@.str.2 = private unnamed_addr constant [30 x i8] c"SDL.renderer.max_texture_size\00", align 1

; Function Attrs: nounwind uwtable
define internal void @VULKAN_InvalidateCachedState(ptr noundef %0) #0 {
  %2 = alloca ptr, align 8
  %3 = alloca ptr, align 8
  store ptr %0, ptr %2, align 8
  call void @llvm.lifetime.start.p0(i64 8, ptr %3) #6
  %4 = load ptr, ptr %2, align 8
  %5 = getelementptr inbounds nuw %struct.SDL_Renderer, ptr %4, i32 0, i32 77
  %6 = load ptr, ptr %5, align 8
  store ptr %6, ptr %3, align 8
  %7 = load ptr, ptr %3, align 8
  %8 = getelementptr inbounds nuw %struct.VULKAN_RenderData, ptr %7, i32 0, i32 48
  store ptr null, ptr %8, align 8
  %9 = load ptr, ptr %3, align 8
  %10 = getelementptr inbounds nuw %struct.VULKAN_RenderData, ptr %9, i32 0, i32 74
  store i8 1, ptr %10, align 8
  call void @llvm.lifetime.end.p0(i64 8, ptr %3) #6
  ret void
}

; Function Attrs: nounwind uwtable
define internal zeroext i1 @VULKAN_CreateRenderer(ptr noundef %0, ptr noundef %1, i32 noundef %2) #0 {
  %4 = alloca i1, align 1
  %5 = alloca ptr, align 8
  %6 = alloca ptr, align 8
  %7 = alloca i32, align 4
  %8 = alloca ptr, align 8
  %9 = alloca i32, align 4
  %10 = alloca %struct.Float4X4, align 4
  store ptr %0, ptr %5, align 8
  store ptr %1, ptr %6, align 8
  store i32 %2, ptr %7, align 4
  call void @llvm.lifetime.start.p0(i64 8, ptr %8) #6
  %11 = load ptr, ptr %5, align 8
  %12 = load i32, ptr %7, align 4
  call void @SDL_SetupRendererColorspace(ptr noundef %11, i32 noundef %12)
  %13 = load ptr, ptr %5, align 8
  %14 = getelementptr inbounds nuw %struct.SDL_Renderer, ptr %13, i32 0, i32 46
  %15 = load i32, ptr %14, align 8
  %16 = icmp ne i32 %15, 301991328
  br i1 %16, label %17, label %24

17:                                               ; preds = %3
  %18 = load ptr, ptr %5, align 8
  %19 = getelementptr inbounds nuw %struct.SDL_Renderer, ptr %18, i32 0, i32 46
  %20 = load i32, ptr %19, align 8
  %21 = icmp ne i32 %20, 301991168
  br i1 %21, label %22, label %24

22:                                               ; preds = %17
  %23 = call zeroext i1 (ptr, ...) @SDL_SetError_REAL(ptr noundef @.str.1)
  store i1 %23, ptr %4, align 1
  store i32 1, ptr %9, align 4
  br label %147

24:                                               ; preds = %17, %3
  %25 = call noalias ptr @SDL_calloc_REAL(i64 noundef 1, i64 noundef 10632) #8
  store ptr %25, ptr %8, align 8
  %26 = load ptr, ptr %8, align 8
  %27 = icmp ne ptr %26, null
  br i1 %27, label %29, label %28

28:                                               ; preds = %24
  store i1 false, ptr %4, align 1
  store i32 1, ptr %9, align 4
  br label %147

29:                                               ; preds = %24
  %30 = load ptr, ptr %8, align 8
  %31 = getelementptr inbounds nuw %struct.VULKAN_RenderData, ptr %30, i32 0, i32 80
  call void @llvm.lifetime.start.p0(i64 64, ptr %10) #6
  call void @MatrixIdentity(ptr dead_on_unwind writable sret(%struct.Float4X4) align 4 %10)
  call void @llvm.memcpy.p0.p0.i64(ptr align 4 %31, ptr align 4 %10, i64 64, i1 false)
  call void @llvm.lifetime.end.p0(i64 64, ptr %10) #6
  %32 = load ptr, ptr %8, align 8
  %33 = getelementptr inbounds nuw %struct.VULKAN_RenderData, ptr %32, i32 0, i32 81
  %34 = getelementptr inbounds nuw %struct.VkComponentMapping, ptr %33, i32 0, i32 0
  store i32 0, ptr %34, align 4
  %35 = load ptr, ptr %8, align 8
  %36 = getelementptr inbounds nuw %struct.VULKAN_RenderData, ptr %35, i32 0, i32 81
  %37 = getelementptr inbounds nuw %struct.VkComponentMapping, ptr %36, i32 0, i32 1
  store i32 0, ptr %37, align 4
  %38 = load ptr, ptr %8, align 8
  %39 = getelementptr inbounds nuw %struct.VULKAN_RenderData, ptr %38, i32 0, i32 81
  %40 = getelementptr inbounds nuw %struct.VkComponentMapping, ptr %39, i32 0, i32 2
  store i32 0, ptr %40, align 4
  %41 = load ptr, ptr %8, align 8
  %42 = getelementptr inbounds nuw %struct.VULKAN_RenderData, ptr %41, i32 0, i32 81
  %43 = getelementptr inbounds nuw %struct.VkComponentMapping, ptr %42, i32 0, i32 3
  store i32 0, ptr %43, align 4
  %44 = call i32 @SDL_CreateProperties_REAL()
  %45 = load ptr, ptr %8, align 8
  %46 = getelementptr inbounds nuw %struct.VULKAN_RenderData, ptr %45, i32 0, i32 25
  store i32 %44, ptr %46, align 8
  %47 = load i32, ptr %7, align 4
  %48 = load ptr, ptr %8, align 8
  %49 = getelementptr inbounds nuw %struct.VULKAN_RenderData, ptr %48, i32 0, i32 25
  %50 = load i32, ptr %49, align 8
  %51 = call zeroext i1 @SDL_CopyProperties_REAL(i32 noundef %47, i32 noundef %50)
  br i1 %51, label %54, label %52

52:                                               ; preds = %29
  %53 = load ptr, ptr %8, align 8
  call void @SDL_free_REAL(ptr noundef %53)
  store i1 false, ptr %4, align 1
  store i32 1, ptr %9, align 4
  br label %147

54:                                               ; preds = %29
  %55 = load ptr, ptr %5, align 8
  %56 = getelementptr inbounds nuw %struct.SDL_Renderer, ptr %55, i32 0, i32 0
  store ptr @VULKAN_WindowEvent, ptr %56, align 8
  %57 = load ptr, ptr %5, align 8
  %58 = getelementptr inbounds nuw %struct.SDL_Renderer, ptr %57, i32 0, i32 2
  store ptr @VULKAN_SupportsBlendMode, ptr %58, align 8
  %59 = load ptr, ptr %5, align 8
  %60 = getelementptr inbounds nuw %struct.SDL_Renderer, ptr %59, i32 0, i32 3
  store ptr @VULKAN_CreateTexture, ptr %60, align 8
  %61 = load ptr, ptr %5, align 8
  %62 = getelementptr inbounds nuw %struct.SDL_Renderer, ptr %61, i32 0, i32 14
  store ptr @VULKAN_UpdateTexture, ptr %62, align 8
  %63 = load ptr, ptr %5, align 8
  %64 = getelementptr inbounds nuw %struct.SDL_Renderer, ptr %63, i32 0, i32 15
  store ptr @VULKAN_UpdateTextureYUV, ptr %64, align 8
  %65 = load ptr, ptr %5, align 8
  %66 = getelementptr inbounds nuw %struct.SDL_Renderer, ptr %65, i32 0, i32 16
  store ptr @VULKAN_UpdateTextureNV, ptr %66, align 8
  %67 = load ptr, ptr %5, align 8
  %68 = getelementptr inbounds nuw %struct.SDL_Renderer, ptr %67, i32 0, i32 17
  store ptr @VULKAN_LockTexture, ptr %68, align 8
  %69 = load ptr, ptr %5, align 8
  %70 = getelementptr inbounds nuw %struct.SDL_Renderer, ptr %69, i32 0, i32 18
  store ptr @VULKAN_UnlockTexture, ptr %70, align 8
  %71 = load ptr, ptr %5, align 8
  %72 = getelementptr inbounds nuw %struct.SDL_Renderer, ptr %71, i32 0, i32 19
  store ptr @VULKAN_SetRenderTarget, ptr %72, align 8
  %73 = load ptr, ptr %5, align 8
  %74 = getelementptr inbounds nuw %struct.SDL_Renderer, ptr %73, i32 0, i32 4
  store ptr @VULKAN_QueueNoOp, ptr %74, align 8
  %75 = load ptr, ptr %5, align 8
  %76 = getelementptr inbounds nuw %struct.SDL_Renderer, ptr %75, i32 0, i32 5
  store ptr @VULKAN_QueueNoOp, ptr %76, align 8
  %77 = load ptr, ptr %5, align 8
  %78 = getelementptr inbounds nuw %struct.SDL_Renderer, ptr %77, i32 0, i32 6
  store ptr @VULKAN_QueueDrawPoints, ptr %78, align 8
  %79 = load ptr, ptr %5, align 8
  %80 = getelementptr inbounds nuw %struct.SDL_Renderer, ptr %79, i32 0, i32 7
  store ptr @VULKAN_QueueDrawPoints, ptr %80, align 8
  %81 = load ptr, ptr %5, align 8
  %82 = getelementptr inbounds nuw %struct.SDL_Renderer, ptr %81, i32 0, i32 11
  store ptr @VULKAN_QueueGeometry, ptr %82, align 8
  %83 = load ptr, ptr %5, align 8
  %84 = getelementptr inbounds nuw %struct.SDL_Renderer, ptr %83, i32 0, i32 12
  store ptr @VULKAN_InvalidateCachedState, ptr %84, align 8
  %85 = load ptr, ptr %5, align 8
  %86 = getelementptr inbounds nuw %struct.SDL_Renderer, ptr %85, i32 0, i32 13
  store ptr @VULKAN_RunCommandQueue, ptr %86, align 8
  %87 = load ptr, ptr %5, align 8
  %88 = getelementptr inbounds nuw %struct.SDL_Renderer, ptr %87, i32 0, i32 20
  store ptr @VULKAN_RenderReadPixels, ptr %88, align 8
  %89 = load ptr, ptr %5, align 8
  %90 = getelementptr inbounds nuw %struct.SDL_Renderer, ptr %89, i32 0, i32 27
  store ptr @VULKAN_AddVulkanRenderSemaphores, ptr %90, align 8
  %91 = load ptr, ptr %5, align 8
  %92 = getelementptr inbounds nuw %struct.SDL_Renderer, ptr %91, i32 0, i32 21
  store ptr @VULKAN_RenderPresent, ptr %92, align 8
  %93 = load ptr, ptr %5, align 8
  %94 = getelementptr inbounds nuw %struct.SDL_Renderer, ptr %93, i32 0, i32 22
  store ptr @VULKAN_DestroyTexture, ptr %94, align 8
  %95 = load ptr, ptr %5, align 8
  %96 = getelementptr inbounds nuw %struct.SDL_Renderer, ptr %95, i32 0, i32 23
  store ptr @VULKAN_DestroyRenderer, ptr %96, align 8
  %97 = load ptr, ptr %5, align 8
  %98 = getelementptr inbounds nuw %struct.SDL_Renderer, ptr %97, i32 0, i32 24
  store ptr @VULKAN_SetVSync, ptr %98, align 8
  %99 = load ptr, ptr %8, align 8
  %100 = load ptr, ptr %5, align 8
  %101 = getelementptr inbounds nuw %struct.SDL_Renderer, ptr %100, i32 0, i32 77
  store ptr %99, ptr %101, align 8
  %102 = load ptr, ptr %5, align 8
  call void @VULKAN_InvalidateCachedState(ptr noundef %102)
  %103 = load ptr, ptr getelementptr inbounds nuw (%struct.SDL_RenderDriver, ptr @VULKAN_RenderDriver, i32 0, i32 1), align 8
  %104 = load ptr, ptr %5, align 8
  %105 = getelementptr inbounds nuw %struct.SDL_Renderer, ptr %104, i32 0, i32 28
  store ptr %103, ptr %105, align 8
  %106 = load ptr, ptr %5, align 8
  %107 = call zeroext i1 @SDL_AddSupportedTextureFormat(ptr noundef %106, i32 noundef 372645892)
  %108 = load ptr, ptr %5, align 8
  %109 = call zeroext i1 @SDL_AddSupportedTextureFormat(ptr noundef %108, i32 noundef 376840196)
  %110 = load ptr, ptr %5, align 8
  %111 = call zeroext i1 @SDL_AddSupportedTextureFormat(ptr noundef %110, i32 noundef 376905732)
  %112 = load ptr, ptr %5, align 8
  %113 = call zeroext i1 @SDL_AddSupportedTextureFormat(ptr noundef %112, i32 noundef 438321160)
  %114 = load ptr, ptr %5, align 8
  %115 = call i32 @SDL_GetRendererProperties_REAL(ptr noundef %114)
  %116 = call zeroext i1 @SDL_SetNumberProperty_REAL(i32 noundef %115, ptr noundef @.str.2, i64 noundef 16384)
  %117 = load ptr, ptr %6, align 8
  %118 = load ptr, ptr %5, align 8
  %119 = getelementptr inbounds nuw %struct.SDL_Renderer, ptr %118, i32 0, i32 32
  store ptr %117, ptr %119, align 8
  %120 = load ptr, ptr %5, align 8
  %121 = load i32, ptr %7, align 4
  %122 = call i32 @VULKAN_CreateDeviceResources(ptr noundef %120, i32 noundef %121)
  %123 = icmp ne i32 %122, 0
  br i1 %123, label %124, label %125

124:                                              ; preds = %54
  store i1 false, ptr %4, align 1
  store i32 1, ptr %9, align 4
  br label %147

125:                                              ; preds = %54
  %126 = load ptr, ptr %5, align 8
  %127 = call i32 @VULKAN_CreateWindowSizeDependentResources(ptr noundef %126)
  %128 = icmp ne i32 %127, 0
  br i1 %128, label %129, label %130

129:                                              ; preds = %125
  store i1 false, ptr %4, align 1
  store i32 1, ptr %9, align 4
  br label %147

130:                                              ; preds = %125
  %131 = load ptr, ptr %8, align 8
  %132 = getelementptr inbounds nuw %struct.VULKAN_RenderData, ptr %131, i32 0, i32 51
  %133 = load i8, ptr %132, align 2, !range !3, !noundef !4
  %134 = trunc i8 %133 to i1
  br i1 %134, label %135, label %146

135:                                              ; preds = %130
  %136 = load ptr, ptr %5, align 8
  %137 = call zeroext i1 @SDL_AddSupportedTextureFormat(ptr noundef %136, i32 noundef 842094169)
  %138 = load ptr, ptr %5, align 8
  %139 = call zeroext i1 @SDL_AddSupportedTextureFormat(ptr noundef %138, i32 noundef 1448433993)
  %140 = load ptr, ptr %5, align 8
  %141 = call zeroext i1 @SDL_AddSupportedTextureFormat(ptr noundef %140, i32 noundef 842094158)
  %142 = load ptr, ptr %5, align 8
  %143 = call zeroext i1 @SDL_AddSupportedTextureFormat(ptr noundef %142, i32 noundef 825382478)
  %144 = load ptr, ptr %5, align 8
  %145 = call zeroext i1 @SDL_AddSupportedTextureFormat(ptr noundef %144, i32 noundef 808530000)
  br label %146

146:                                              ; preds = %135, %130
  store i1 true, ptr %4, align 1
  store i32 1, ptr %9, align 4
  br label %147

147:                                              ; preds = %146, %129, %124, %52, %28, %22
  call void @llvm.lifetime.end.p0(i64 8, ptr %8) #6
  %148 = load i1, ptr %4, align 1
  ret i1 %148
}