; Function Attrs: nounwind uwtable
define internal zeroext i1 @VULKAN_CreateRenderer(ptr noundef %0, ptr noundef %1, i32 noundef %2) #0 {
  tail call void @SDL_SetupRendererColorspace(ptr noundef %0, i32 noundef %2) #8
  %4 = getelementptr inbounds nuw i8, ptr %0, i64 480
  %5 = load i32, ptr %4, align 8
  switch i32 %5, label %6 [
    i32 301991328, label %8
    i32 301991168, label %8
  ]

6:                                                ; preds = %3
  %7 = tail call zeroext i1 (ptr, ...) @SDL_SetError_REAL(ptr noundef nonnull @.str.1) #8
  br label %64

8:                                                ; preds = %3, %3
  %9 = tail call noalias dereferenceable_or_null(10632) ptr @SDL_calloc_REAL(i64 noundef 1, i64 noundef 10632) #11
  %.not59 = icmp eq ptr %9, null
  br i1 %.not59, label %64, label %10

10:                                               ; preds = %8
  %11 = getelementptr inbounds nuw i8, ptr %9, i64 10540
  tail call void @MatrixIdentity(ptr dead_on_unwind nonnull writable sret(%struct.Float4X4) align 4 %11) #8
  %12 = getelementptr inbounds nuw i8, ptr %9, i64 10604
  tail call void @llvm.memset.p0.i64(ptr noundef nonnull align 4 dereferenceable(16) %12, i8 0, i64 16, i1 false)
  %13 = tail call i32 @SDL_CreateProperties_REAL() #8
  %14 = getelementptr inbounds nuw i8, ptr %9, i64 1776
  store i32 %13, ptr %14, align 8
  %15 = tail call zeroext i1 @SDL_CopyProperties_REAL(i32 noundef %2, i32 noundef %13) #8
  br i1 %15, label %17, label %16

16:                                               ; preds = %10
  tail call void @SDL_free_REAL(ptr noundef nonnull %9) #8
  br label %64

17:                                               ; preds = %10
  store ptr @VULKAN_WindowEvent, ptr %0, align 8
  %18 = getelementptr inbounds nuw i8, ptr %0, i64 16
  store ptr @VULKAN_SupportsBlendMode, ptr %18, align 8
  %19 = getelementptr inbounds nuw i8, ptr %0, i64 24
  store ptr @VULKAN_CreateTexture, ptr %19, align 8
  %20 = getelementptr inbounds nuw i8, ptr %0, i64 112
  store ptr @VULKAN_UpdateTexture, ptr %20, align 8
  %21 = getelementptr inbounds nuw i8, ptr %0, i64 120
  store ptr @VULKAN_UpdateTextureYUV, ptr %21, align 8
  %22 = getelementptr inbounds nuw i8, ptr %0, i64 128
  store ptr @VULKAN_UpdateTextureNV, ptr %22, align 8
  %23 = getelementptr inbounds nuw i8, ptr %0, i64 136
  store ptr @VULKAN_LockTexture, ptr %23, align 8
  %24 = getelementptr inbounds nuw i8, ptr %0, i64 144
  store ptr @VULKAN_UnlockTexture, ptr %24, align 8
  %25 = getelementptr inbounds nuw i8, ptr %0, i64 152
  store ptr @VULKAN_SetRenderTarget, ptr %25, align 8
  %26 = getelementptr inbounds nuw i8, ptr %0, i64 32
  store ptr @VULKAN_QueueNoOp, ptr %26, align 8
  %27 = getelementptr inbounds nuw i8, ptr %0, i64 40
  store ptr @VULKAN_QueueNoOp, ptr %27, align 8
  %28 = getelementptr inbounds nuw i8, ptr %0, i64 48
  store ptr @VULKAN_QueueDrawPoints, ptr %28, align 8
  %29 = getelementptr inbounds nuw i8, ptr %0, i64 56
  store ptr @VULKAN_QueueDrawPoints, ptr %29, align 8
  %30 = getelementptr inbounds nuw i8, ptr %0, i64 88
  store ptr @VULKAN_QueueGeometry, ptr %30, align 8
  %31 = getelementptr inbounds nuw i8, ptr %0, i64 96
  store ptr @VULKAN_InvalidateCachedState, ptr %31, align 8
  %32 = getelementptr inbounds nuw i8, ptr %0, i64 104
  store ptr @VULKAN_RunCommandQueue, ptr %32, align 8
  %33 = getelementptr inbounds nuw i8, ptr %0, i64 160
  store ptr @VULKAN_RenderReadPixels, ptr %33, align 8
  %34 = getelementptr inbounds nuw i8, ptr %0, i64 216
  store ptr @VULKAN_AddVulkanRenderSemaphores, ptr %34, align 8
  %35 = getelementptr inbounds nuw i8, ptr %0, i64 168
  store ptr @VULKAN_RenderPresent, ptr %35, align 8
  %36 = getelementptr inbounds nuw i8, ptr %0, i64 176
  store ptr @VULKAN_DestroyTexture, ptr %36, align 8
  %37 = getelementptr inbounds nuw i8, ptr %0, i64 184
  store ptr @VULKAN_DestroyRenderer, ptr %37, align 8
  %38 = getelementptr inbounds nuw i8, ptr %0, i64 192
  store ptr @VULKAN_SetVSync, ptr %38, align 8
  %39 = getelementptr inbounds nuw i8, ptr %0, i64 696
  store ptr %9, ptr %39, align 8
  %40 = getelementptr inbounds nuw i8, ptr %9, i64 10344
  store ptr null, ptr %40, align 8
  %41 = getelementptr inbounds nuw i8, ptr %9, i64 10496
  store i8 1, ptr %41, align 8
  %42 = load ptr, ptr getelementptr inbounds nuw (i8, ptr @VULKAN_RenderDriver, i64 8), align 8
  %43 = getelementptr inbounds nuw i8, ptr %0, i64 224
  store ptr %42, ptr %43, align 8
  %44 = tail call zeroext i1 @SDL_AddSupportedTextureFormat(ptr noundef nonnull %0, i32 noundef 372645892) #8
  %45 = tail call zeroext i1 @SDL_AddSupportedTextureFormat(ptr noundef nonnull %0, i32 noundef 376840196) #8
  %46 = tail call zeroext i1 @SDL_AddSupportedTextureFormat(ptr noundef nonnull %0, i32 noundef 376905732) #8
  %47 = tail call zeroext i1 @SDL_AddSupportedTextureFormat(ptr noundef nonnull %0, i32 noundef 438321160) #8
  %48 = tail call i32 @SDL_GetRendererProperties_REAL(ptr noundef nonnull %0) #8
  %49 = tail call zeroext i1 @SDL_SetNumberProperty_REAL(i32 noundef %48, ptr noundef nonnull @.str.2, i64 noundef 16384) #8
  %50 = getelementptr inbounds nuw i8, ptr %0, i64 248
  store ptr %1, ptr %50, align 8
  %51 = tail call fastcc i32 @VULKAN_CreateDeviceResources(ptr noundef nonnull %0, i32 noundef %2)
  %.not60 = icmp eq i32 %51, 0
  br i1 %.not60, label %52, label %64

52:                                               ; preds = %17
  %53 = tail call fastcc i32 @VULKAN_CreateWindowSizeDependentResources(ptr noundef nonnull %0)
  %.not61 = icmp eq i32 %53, 0
  br i1 %.not61, label %54, label %64

54:                                               ; preds = %52
  %55 = getelementptr inbounds nuw i8, ptr %9, i64 10354
  %56 = load i8, ptr %55, align 2, !range !3, !noundef !4
  %57 = trunc nuw i8 %56 to i1
  br i1 %57, label %58, label %64

58:                                               ; preds = %54
  %59 = tail call zeroext i1 @SDL_AddSupportedTextureFormat(ptr noundef nonnull %0, i32 noundef 842094169) #8
  %60 = tail call zeroext i1 @SDL_AddSupportedTextureFormat(ptr noundef nonnull %0, i32 noundef 1448433993) #8
  %61 = tail call zeroext i1 @SDL_AddSupportedTextureFormat(ptr noundef nonnull %0, i32 noundef 842094158) #8
  %62 = tail call zeroext i1 @SDL_AddSupportedTextureFormat(ptr noundef nonnull %0, i32 noundef 825382478) #8
  %63 = tail call zeroext i1 @SDL_AddSupportedTextureFormat(ptr noundef nonnull %0, i32 noundef 808530000) #8
  br label %64

64:                                               ; preds = %54, %58, %52, %17, %8, %16, %6
  %.0 = phi i1 [ %7, %6 ], [ false, %16 ], [ false, %8 ], [ false, %17 ], [ false, %52 ], [ true, %58 ], [ true, %54 ]
  ret i1 %.0
}